target datalayout = "e-m:e-p270:32:32-p271:32:32-p272:64:64-i64:64-i128:128-f80:128-n8:16:32:64-S128"
target triple = "x86_64-pc-linux-gnu"

; Function Attrs: nounwind uwtable
define i32 @Dau_DsdToGia(ptr noundef %0, ptr noundef %1, ptr noundef %2, ptr noundef %3) #0 {
  %5 = alloca ptr, align 8
  %6 = alloca ptr, align 8
  %7 = alloca ptr, align 8
  %8 = alloca ptr, align 8
  %9 = alloca i32, align 4
  store ptr %0, ptr %5, align 8, !tbaa !3
  store ptr %1, ptr %6, align 8, !tbaa !32
  store ptr %2, ptr %7, align 8, !tbaa !10
  store ptr %3, ptr %8, align 8, !tbaa !35
  call void @llvm.lifetime.start.p0(i64 4, ptr %9) #11
  %10 = load ptr, ptr %6, align 8, !tbaa !32
  %11 = load i8, ptr %10, align 1, !tbaa !36
  %12 = sext i8 %11 to i32
  %13 = icmp eq i32 %12, 48
  br i1 %13, label %14, label %21

14:                                               ; preds = %4
  %15 = load ptr, ptr %6, align 8, !tbaa !32
  %16 = getelementptr inbounds i8, ptr %15, i64 1
  %17 = load i8, ptr %16, align 1, !tbaa !36
  %18 = sext i8 %17 to i32
  %19 = icmp eq i32 %18, 0
  br i1 %19, label %20, label %21

20:                                               ; preds = %14
  store i32 0, ptr %9, align 4, !tbaa !12
  br label %42

21:                                               ; preds = %14, %4
  %22 = load ptr, ptr %6, align 8, !tbaa !32
  %23 = load i8, ptr %22, align 1, !tbaa !36
  %24 = sext i8 %23 to i32
  %25 = icmp eq i32 %24, 49
  br i1 %25, label %26, label %33

26:                                               ; preds = %21
  %27 = load ptr, ptr %6, align 8, !tbaa !32
  %28 = getelementptr inbounds i8, ptr %27, i64 1
  %29 = load i8, ptr %28, align 1, !tbaa !36
  %30 = sext i8 %29 to i32
  %31 = icmp eq i32 %30, 0
  br i1 %31, label %32, label %33

32:                                               ; preds = %26
  store i32 1, ptr %9, align 4, !tbaa !12
  br label %41

33:                                               ; preds = %26, %21
  %34 = load ptr, ptr %5, align 8, !tbaa !3
  %35 = load ptr, ptr %6, align 8, !tbaa !32
  %36 = load ptr, ptr %6, align 8, !tbaa !32
  %37 = call ptr @Dau_DsdComputeMatches(ptr noundef %36)
  %38 = load ptr, ptr %7, align 8, !tbaa !10
  %39 = load ptr, ptr %8, align 8, !tbaa !35
  %40 = call i32 @Dau_DsdToGia_rec(ptr noundef %34, ptr noundef %35, ptr noundef %6, ptr noundef %37, ptr noundef %38, ptr noundef %39)
  store i32 %40, ptr %9, align 4, !tbaa !12
  br label %41

41:                                               ; preds = %33, %32
  br label %42

42:                                               ; preds = %41, %20
  %43 = load i32, ptr %9, align 4, !tbaa !12
  call void @llvm.lifetime.end.p0(i64 4, ptr %9) #11
  ret i32 %43
}